target datalayout = "e-m:e-p270:32:32-p271:32:32-p272:64:64-i64:64-i128:128-f80:128-n8:16:32:64-S128"
target triple = "x86_64-unknown-linux-gnu"

%"class.facebook::velox::common::hll::SparseHll" = type <{ %"class.std::vector", i32, [4 x i8] }>
%"class.std::vector" = type { %"struct.std::_Vector_base" }
%"struct.std::_Vector_base" = type { %"struct.std::_Vector_base<unsigned int, facebook::velox::StlAllocator<unsigned int>>::_Vector_impl" }
%"struct.std::_Vector_base<unsigned int, facebook::velox::StlAllocator<unsigned int>>::_Vector_impl" = type { %"struct.facebook::velox::StlAllocator", %"struct.std::_Vector_base<unsigned int, facebook::velox::StlAllocator<unsigned int>>::_Vector_impl_data" }
%"struct.facebook::velox::StlAllocator" = type { ptr }
%"struct.std::_Vector_base<unsigned int, facebook::velox::StlAllocator<unsigned int>>::_Vector_impl_data" = type { ptr, ptr, ptr }
%"class.facebook::velox::common::hll::DenseHll" = type { i8, i8, i32, %"class.std::vector.6", i16, %"class.std::vector.9", %"class.std::vector.6" }
%"class.std::vector.9" = type { %"struct.std::_Vector_base.10" }
%"struct.std::_Vector_base.10" = type { %"struct.std::_Vector_base<unsigned short, facebook::velox::StlAllocator<unsigned short>>::_Vector_impl" }
%"struct.std::_Vector_base<unsigned short, facebook::velox::StlAllocator<unsigned short>>::_Vector_impl" = type { %"struct.facebook::velox::StlAllocator.11", %"struct.std::_Vector_base<unsigned short, facebook::velox::StlAllocator<unsigned short>>::_Vector_impl_data" }
%"struct.facebook::velox::StlAllocator.11" = type { ptr }
%"struct.std::_Vector_base<unsigned short, facebook::velox::StlAllocator<unsigned short>>::_Vector_impl_data" = type { ptr, ptr, ptr }
%"class.std::vector.6" = type { %"struct.std::_Vector_base.7" }
%"struct.std::_Vector_base.7" = type { %"struct.std::_Vector_base<signed char, facebook::velox::StlAllocator<signed char>>::_Vector_impl" }
%"struct.std::_Vector_base<signed char, facebook::velox::StlAllocator<signed char>>::_Vector_impl" = type { %"struct.facebook::velox::StlAllocator.8", %"struct.std::_Vector_base<signed char, facebook::velox::StlAllocator<signed char>>::_Vector_impl_data" }
%"struct.facebook::velox::StlAllocator.8" = type { ptr }
%"struct.std::_Vector_base<signed char, facebook::velox::StlAllocator<signed char>>::_Vector_impl_data" = type { ptr, ptr, ptr }

; Function Attrs: mustprogress nounwind uwtable
define internal noundef i32 @_ZN8facebook5velox6common3hll12_GLOBAL__N_111decodeValueEj(i32 noundef %entry1) #1 {
entry:
  %entry.addr = alloca i32, align 4
  store i32 %entry1, ptr %entry.addr, align 4
  %0 = load i32, ptr %entry.addr, align 4
  %and = and i32 %0, 63
  ret i32 %and
}

; Function Attrs: mustprogress nounwind uwtable
define linkonce_odr noundef nonnull align 4 dereferenceable(4) ptr @_ZNKSt6vectorIjN8facebook5velox12StlAllocatorIjEEEixEm(ptr noundef nonnull align 8 dereferenceable(32) %this, i64 noundef %__n) #1 comdat align 2 {
entry:
  %this.addr = alloca ptr, align 8
  %__n.addr = alloca i64, align 8
  store ptr %this, ptr %this.addr, align 8
  store i64 %__n, ptr %__n.addr, align 8
  %this1 = load ptr, ptr %this.addr, align 8
  %_M_impl = getelementptr inbounds %"struct.std::_Vector_base", ptr %this1, i32 0, i32 0
  %add.ptr = getelementptr inbounds i8, ptr %_M_impl, i64 8
  %_M_start = getelementptr inbounds %"struct.std::_Vector_base<unsigned int, facebook::velox::StlAllocator<unsigned int>>::_Vector_impl_data", ptr %add.ptr, i32 0, i32 0
  %0 = load ptr, ptr %_M_start, align 8
  %1 = load i64, ptr %__n.addr, align 8
  %add.ptr2 = getelementptr inbounds i32, ptr %0, i64 %1
  ret ptr %add.ptr2
}

; Function Attrs: mustprogress nounwind uwtable
define linkonce_odr noundef i64 @_ZNKSt6vectorIjN8facebook5velox12StlAllocatorIjEEE4sizeEv(ptr noundef nonnull align 8 dereferenceable(32) %this) #1 comdat align 2 {
entry:
  %this.addr = alloca ptr, align 8
  store ptr %this, ptr %this.addr, align 8
  %this1 = load ptr, ptr %this.addr, align 8
  %_M_impl = getelementptr inbounds %"struct.std::_Vector_base", ptr %this1, i32 0, i32 0
  %add.ptr = getelementptr inbounds i8, ptr %_M_impl, i64 8
  %_M_finish = getelementptr inbounds %"struct.std::_Vector_base<unsigned int, facebook::velox::StlAllocator<unsigned int>>::_Vector_impl_data", ptr %add.ptr, i32 0, i32 1
  %0 = load ptr, ptr %_M_finish, align 8
  %_M_impl2 = getelementptr inbounds %"struct.std::_Vector_base", ptr %this1, i32 0, i32 0
  %add.ptr3 = getelementptr inbounds i8, ptr %_M_impl2, i64 8
  %_M_start = getelementptr inbounds %"struct.std::_Vector_base<unsigned int, facebook::velox::StlAllocator<unsigned int>>::_Vector_impl_data", ptr %add.ptr3, i32 0, i32 0
  %1 = load ptr, ptr %_M_start, align 8
  %sub.ptr.lhs.cast = ptrtoint ptr %0 to i64
  %sub.ptr.rhs.cast = ptrtoint ptr %1 to i64
  %sub.ptr.sub = sub i64 %sub.ptr.lhs.cast, %sub.ptr.rhs.cast
  %sub.ptr.div = sdiv exact i64 %sub.ptr.sub, 4
  ret i64 %sub.ptr.div
}

; Function Attrs: mustprogress nounwind uwtable
define linkonce_odr noundef signext i8 @_ZNK8facebook5velox6common3hll8DenseHll14indexBitLengthEv(ptr noundef nonnull align 8 dereferenceable(112) %this) #1 comdat align 2 {
entry:
  %this.addr = alloca ptr, align 8
  store ptr %this, ptr %this.addr, align 8
  %this1 = load ptr, ptr %this.addr, align 8
  %indexBitLength_ = getelementptr inbounds %"class.facebook::velox::common::hll::DenseHll", ptr %this1, i32 0, i32 0
  %0 = load i8, ptr %indexBitLength_, align 8
  ret i8 %0
}

; Function Attrs: mustprogress uwtable
define void @_ZNK8facebook5velox6common3hll9SparseHll7toDenseERNS2_8DenseHllE(ptr noundef nonnull align 8 dereferenceable(36) %this, ptr noundef nonnull align 8 dereferenceable(112) %denseHll) #0 align 2 {
entry:
  %this.addr = alloca ptr, align 8
  %denseHll.addr = alloca ptr, align 8
  %indexBitLength = alloca i8, align 1
  %i = alloca i32, align 4
  %entry3 = alloca i32, align 4
  %index = alloca i32, align 4
  %shiftedValue = alloca i32, align 4
  %zeros = alloca i32, align 4
  %bits = alloca i32, align 4
  store ptr %this, ptr %this.addr, align 8
  store ptr %denseHll, ptr %denseHll.addr, align 8
  %this1 = load ptr, ptr %this.addr, align 8
  %0 = load ptr, ptr %denseHll.addr, align 8
  %call = call noundef signext i8 @_ZNK8facebook5velox6common3hll8DenseHll14indexBitLengthEv(ptr noundef nonnull align 8 dereferenceable(112) %0)
  store i8 %call, ptr %indexBitLength, align 1
  store i32 0, ptr %i, align 4
  br label %for.cond

for.cond:                                         ; preds = %for.inc, %entry
  %1 = load i32, ptr %i, align 4
  %conv = sext i32 %1 to i64
  %entries_ = getelementptr inbounds %"class.facebook::velox::common::hll::SparseHll", ptr %this1, i32 0, i32 0
  %call2 = call noundef i64 @_ZNKSt6vectorIjN8facebook5velox12StlAllocatorIjEEE4sizeEv(ptr noundef nonnull align 8 dereferenceable(32) %entries_) #11
  %cmp = icmp ult i64 %conv, %call2
  br i1 %cmp, label %for.body, label %for.end

for.body:                                         ; preds = %for.cond
  %entries_4 = getelementptr inbounds %"class.facebook::velox::common::hll::SparseHll", ptr %this1, i32 0, i32 0
  %2 = load i32, ptr %i, align 4
  %conv5 = sext i32 %2 to i64
  %call6 = call noundef nonnull align 4 dereferenceable(4) ptr @_ZNKSt6vectorIjN8facebook5velox12StlAllocatorIjEEEixEm(ptr noundef nonnull align 8 dereferenceable(32) %entries_4, i64 noundef %conv5) #11
  %3 = load i32, ptr %call6, align 4
  store i32 %3, ptr %entry3, align 4
  %4 = load i32, ptr %entry3, align 4
  %5 = load i8, ptr %indexBitLength, align 1
  %conv7 = sext i8 %5 to i32
  %sub = sub nsw i32 32, %conv7
  %shr = lshr i32 %4, %sub
  store i32 %shr, ptr %index, align 4
  %6 = load i32, ptr %entry3, align 4
  %7 = load i8, ptr %indexBitLength, align 1
  %conv8 = sext i8 %7 to i32
  %shl = shl i32 %6, %conv8
  store i32 %shl, ptr %shiftedValue, align 4
  %8 = load i32, ptr %shiftedValue, align 4
  %cmp9 = icmp eq i32 %8, 0
  br i1 %cmp9, label %cond.true, label %cond.false

cond.true:                                        ; preds = %for.body
  br label %cond.end

cond.false:                                       ; preds = %for.body
  %9 = load i32, ptr %shiftedValue, align 4
  %10 = call i32 @llvm.ctlz.i32(i32 %9, i1 true)
  br label %cond.end

cond.end:                                         ; preds = %cond.false, %cond.true
  %cond = phi i32 [ 32, %cond.true ], [ %10, %cond.false ]
  store i32 %cond, ptr %zeros, align 4
  %11 = load i8, ptr %indexBitLength, align 1
  %conv10 = sext i8 %11 to i32
  %sub11 = sub nsw i32 26, %conv10
  store i32 %sub11, ptr %bits, align 4
  %12 = load i32, ptr %zeros, align 4
  %13 = load i32, ptr %bits, align 4
  %cmp12 = icmp sge i32 %12, %13
  br i1 %cmp12, label %if.then, label %if.end

if.then:                                          ; preds = %cond.end
  %14 = load i32, ptr %bits, align 4
  %15 = load i32, ptr %entry3, align 4
  %call13 = call noundef i32 @_ZN8facebook5velox6common3hll12_GLOBAL__N_111decodeValueEj(i32 noundef %15)
  %add = add i32 %14, %call13
  store i32 %add, ptr %zeros, align 4
  br label %if.end

if.end:                                           ; preds = %if.then, %cond.end
  %16 = load ptr, ptr %denseHll.addr, align 8
  %17 = load i32, ptr %index, align 4
  %18 = load i32, ptr %zeros, align 4
  %add14 = add nsw i32 %18, 1
  %conv15 = trunc i32 %add14 to i8
  call void @_ZN8facebook5velox6common3hll8DenseHll6insertEia(ptr noundef nonnull align 8 dereferenceable(112) %16, i32 noundef %17, i8 noundef signext %conv15)
  br label %for.inc

for.inc:                                          ; preds = %if.end
  %19 = load i32, ptr %i, align 4
  %inc = add nsw i32 %19, 1
  store i32 %inc, ptr %i, align 4
  br label %for.cond, !llvm.loop !12

for.end:                                          ; preds = %for.cond
  ret void
}