; Function Attrs: mustprogress uwtable
define void @_ZNK8facebook5velox6common3hll9SparseHll7toDenseERNS2_8DenseHllE(ptr noundef nonnull readonly align 8 captures(none) dereferenceable(36) %this, ptr noundef nonnull align 8 dereferenceable(112) %denseHll) local_unnamed_addr #0 align 2 {
entry:
  %add.ptr.i = getelementptr inbounds nuw i8, ptr %this, i64 8
  %_M_finish.i = getelementptr inbounds nuw i8, ptr %this, i64 16
  %0 = load ptr, ptr %_M_finish.i, align 8
  %1 = load ptr, ptr %add.ptr.i, align 8
  %cmp16.not = icmp eq ptr %0, %1
  br i1 %cmp16.not, label %for.end, label %for.body.lr.ph

for.body.lr.ph:                                   ; preds = %entry
  %2 = load i8, ptr %denseHll, align 8
  %conv7 = sext i8 %2 to i32
  %sub = sub nsw i32 32, %conv7
  %sub11 = sub nsw i32 26, %conv7
  br label %for.body

for.body:                                         ; preds = %for.body.lr.ph, %for.body
  %indvars.iv = phi i64 [ 0, %for.body.lr.ph ], [ %indvars.iv.next, %for.body ]
  %3 = phi ptr [ %1, %for.body.lr.ph ], [ %8, %for.body ]
  %add.ptr2.i = getelementptr inbounds nuw i32, ptr %3, i64 %indvars.iv
  %4 = load i32, ptr %add.ptr2.i, align 4
  %shr = lshr i32 %4, %sub
  %shl = shl i32 %4, %conv7
  %5 = tail call range(i32 0, 33) i32 @llvm.ctlz.i32(i32 %shl, i1 false)
  %cmp12.not = icmp slt i32 %5, %sub11
  %and.i = and i32 %4, 63
  %add = add nsw i32 %and.i, %sub11
  %zeros.0 = select i1 %cmp12.not, i32 %5, i32 %add
  %6 = trunc i32 %zeros.0 to i8
  %conv15 = add nsw i8 %6, 1
  tail call void @_ZN8facebook5velox6common3hll8DenseHll6insertEia(ptr noundef nonnull align 8 dereferenceable(112) %denseHll, i32 noundef %shr, i8 noundef signext %conv15)
  %indvars.iv.next = add nuw nsw i64 %indvars.iv, 1
  %7 = load ptr, ptr %_M_finish.i, align 8
  %8 = load ptr, ptr %add.ptr.i, align 8
  %sub.ptr.lhs.cast.i = ptrtoint ptr %7 to i64
  %sub.ptr.rhs.cast.i = ptrtoint ptr %8 to i64
  %sub.ptr.sub.i = sub i64 %sub.ptr.lhs.cast.i, %sub.ptr.rhs.cast.i
  %sub.ptr.div.i = ashr exact i64 %sub.ptr.sub.i, 2
  %cmp = icmp ugt i64 %sub.ptr.div.i, %indvars.iv.next
  br i1 %cmp, label %for.body, label %for.end, !llvm.loop !12

for.end:                                          ; preds = %for.body, %entry
  ret void
}